target datalayout = "e-m:e-p270:32:32-p271:32:32-p272:64:64-i64:64-i128:128-f80:128-n8:16:32:64-S128"
target triple = "x86_64-unknown-linux-gnu"

%"class.std::basic_ostream" = type { ptr, %"class.std::basic_ios" }
%"class.std::basic_ios" = type { %"class.std::ios_base", ptr, i8, i8, ptr, ptr, ptr, ptr }
%"class.std::ios_base" = type { ptr, i64, i64, i32, i32, i32, ptr, %"struct.std::ios_base::_Words", [8 x %"struct.std::ios_base::_Words"], i32, ptr, %"class.std::locale" }
%"struct.std::ios_base::_Words" = type { ptr, i64 }
%"class.std::locale" = type { ptr }
%"class.proxygen::GenericFilter" = type { %"class.proxygen::HTTPCodec", %"class.proxygen::HTTPCodec::Callback", i8, i8, ptr, ptr, ptr, ptr, ptr, ptr }
%"class.proxygen::HTTPCodec" = type { ptr }
%"class.proxygen::HTTPCodec::Callback" = type { ptr }

@_ZSt4cout = external global %"class.std::basic_ostream", align 8
@.str.25 = private unnamed_addr constant [17 x i8] c"PING: unique_id=\00", align 1

; Function Attrs: mustprogress uwtable
define void @_ZN8proxygen16HTTPCodecPrinter9printPingEm(ptr noundef nonnull align 8 dereferenceable(72) %this, i64 noundef %unique_id) #4 align 2 {
entry:
  %this.addr = alloca ptr, align 8
  %unique_id.addr = alloca i64, align 8
  store ptr %this, ptr %this.addr, align 8
  store i64 %unique_id, ptr %unique_id.addr, align 8
  %call = call noundef nonnull align 8 dereferenceable(8) ptr @_ZStlsISt11char_traitsIcEERSt13basic_ostreamIcT_ES5_PKc(ptr noundef nonnull align 8 dereferenceable(8) @_ZSt4cout, ptr noundef @.str.25)
  %0 = load i64, ptr %unique_id.addr, align 8
  %call2 = call noundef nonnull align 8 dereferenceable(8) ptr @_ZNSolsEm(ptr noundef nonnull align 8 dereferenceable(8) %call, i64 noundef %0)
  %call3 = call noundef nonnull align 8 dereferenceable(8) ptr @_ZNSolsEPFRSoS_E(ptr noundef nonnull align 8 dereferenceable(8) %call2, ptr noundef @_ZSt4endlIcSt11char_traitsIcEERSt13basic_ostreamIT_T0_ES6_)
  ret void
}

; Function Attrs: mustprogress uwtable
define void @_ZN8proxygen16HTTPCodecPrinter11onPingReplyEm(ptr noundef nonnull align 8 dereferenceable(72) %this, i64 noundef %unique_id) unnamed_addr #4 align 2 {
entry:
  %this.addr = alloca ptr, align 8
  %unique_id.addr = alloca i64, align 8
  store ptr %this, ptr %this.addr, align 8
  store i64 %unique_id, ptr %unique_id.addr, align 8
  %this1 = load ptr, ptr %this.addr, align 8
  %0 = load i64, ptr %unique_id.addr, align 8
  call void @_ZN8proxygen16HTTPCodecPrinter9printPingEm(ptr noundef nonnull align 8 dereferenceable(72) %this1, i64 noundef %0)
  %callback_ = getelementptr inbounds %"class.proxygen::GenericFilter", ptr %this1, i32 0, i32 5
  %1 = load ptr, ptr %callback_, align 8
  %2 = load i64, ptr %unique_id.addr, align 8
  %vtable = load ptr, ptr %1, align 8
  %vfn = getelementptr inbounds ptr, ptr %vtable, i64 15
  %3 = load ptr, ptr %vfn, align 8
  call void %3(ptr noundef nonnull align 8 dereferenceable(8) %1, i64 noundef %2)
  ret void
}